target datalayout = "e-m:e-p270:32:32-p271:32:32-p272:64:64-i64:64-i128:128-f80:128-n8:16:32:64-S128"
target triple = "x86_64-unknown-linux-gnu"

%"class.icu_75::UnicodeString" = type { %"class.icu_75::Replaceable", %"union.icu_75::UnicodeString::StackBufferOrFields" }
%"class.icu_75::Replaceable" = type { %"class.icu_75::UObject" }
%"class.icu_75::UObject" = type { ptr }
%"union.icu_75::UnicodeString::StackBufferOrFields" = type { %struct.anon.0, [32 x i8] }
%struct.anon.0 = type { i16, i32, i32, ptr }
%"class.icu_75::UCharsTrieBuilder" = type { %"class.icu_75::StringTrieBuilder", %"class.icu_75::UnicodeString", ptr, i32, i32, ptr, i32, i32 }
%"class.icu_75::StringTrieBuilder" = type { %"class.icu_75::UObject", ptr }
%"class.icu_75::UCharsTrie" = type <{ ptr, ptr, ptr, i32, [4 x i8] }>

; Function Attrs: mustprogress nounwind uwtable
define linkonce_odr void @_ZN6icu_7510UCharsTrieC2EPDsPKDs(ptr noundef nonnull align 8 dereferenceable(28) %this, ptr noundef %adoptUChars, ptr noundef %trieUChars) unnamed_addr #1 comdat align 2 {
entry:
  %this.addr = alloca ptr, align 8
  %adoptUChars.addr = alloca ptr, align 8
  %trieUChars.addr = alloca ptr, align 8
  store ptr %this, ptr %this.addr, align 8
  store ptr %adoptUChars, ptr %adoptUChars.addr, align 8
  store ptr %trieUChars, ptr %trieUChars.addr, align 8
  %this1 = load ptr, ptr %this.addr, align 8
  %ownedArray_ = getelementptr inbounds %"class.icu_75::UCharsTrie", ptr %this1, i32 0, i32 0
  %0 = load ptr, ptr %adoptUChars.addr, align 8
  store ptr %0, ptr %ownedArray_, align 8
  %uchars_ = getelementptr inbounds %"class.icu_75::UCharsTrie", ptr %this1, i32 0, i32 1
  %1 = load ptr, ptr %trieUChars.addr, align 8
  store ptr %1, ptr %uchars_, align 8
  %pos_ = getelementptr inbounds %"class.icu_75::UCharsTrie", ptr %this1, i32 0, i32 2
  %uchars_2 = getelementptr inbounds %"class.icu_75::UCharsTrie", ptr %this1, i32 0, i32 1
  %2 = load ptr, ptr %uchars_2, align 8
  store ptr %2, ptr %pos_, align 8
  %remainingMatchLength_ = getelementptr inbounds %"class.icu_75::UCharsTrie", ptr %this1, i32 0, i32 3
  store i32 -1, ptr %remainingMatchLength_, align 8
  ret void
}

; Function Attrs: mustprogress nounwind uwtable
define internal noundef signext i8 @_ZL9U_SUCCESS10UErrorCode(i32 noundef %code) #1 {
entry:
  %code.addr = alloca i32, align 4
  store i32 %code, ptr %code.addr, align 4
  %0 = load i32, ptr %code.addr, align 4
  %cmp = icmp sle i32 %0, 0
  %conv = zext i1 %cmp to i8
  ret i8 %conv
}

; Function Attrs: mustprogress uwtable
define noundef ptr @_ZN6icu_7517UCharsTrieBuilder5buildE22UStringTrieBuildOptionR10UErrorCode(ptr noundef nonnull align 8 dereferenceable(112) %this, i32 noundef %buildOption, ptr noundef nonnull align 4 dereferenceable(4) %errorCode) #0 align 2 personality ptr @__gxx_personality_v0 {
entry:
  %this.addr = alloca ptr, align 8
  %buildOption.addr = alloca i32, align 4
  %errorCode.addr = alloca ptr, align 8
  %newTrie = alloca ptr, align 8
  %saved-rvalue = alloca ptr, align 8
  %cleanup.cond = alloca i1, align 1
  %exn.slot = alloca ptr, align 8
  %ehselector.slot = alloca i32, align 4
  store ptr %this, ptr %this.addr, align 8
  store i32 %buildOption, ptr %buildOption.addr, align 4
  store ptr %errorCode, ptr %errorCode.addr, align 8
  %this1 = load ptr, ptr %this.addr, align 8
  %0 = load i32, ptr %buildOption.addr, align 4
  %1 = load ptr, ptr %errorCode.addr, align 8
  call void @_ZN6icu_7517UCharsTrieBuilder11buildUCharsE22UStringTrieBuildOptionR10UErrorCode(ptr noundef nonnull align 8 dereferenceable(112) %this1, i32 noundef %0, ptr noundef nonnull align 4 dereferenceable(4) %1)
  store ptr null, ptr %newTrie, align 8
  %2 = load ptr, ptr %errorCode.addr, align 8
  %3 = load i32, ptr %2, align 4
  %call = call noundef signext i8 @_ZL9U_SUCCESS10UErrorCode(i32 noundef %3)
  %tobool = icmp ne i8 %call, 0
  br i1 %tobool, label %if.then, label %if.end7

if.then:                                          ; preds = %entry
  %call2 = call noundef ptr @_ZN6icu_757UMemorynwEm(i64 noundef 32) #8
  %new.isnull = icmp eq ptr %call2, null
  store i1 false, ptr %cleanup.cond, align 1
  br i1 %new.isnull, label %new.cont, label %new.notnull

new.notnull:                                      ; preds = %if.then
  store ptr %call2, ptr %saved-rvalue, align 8
  store i1 true, ptr %cleanup.cond, align 1
  %uchars = getelementptr inbounds %"class.icu_75::UCharsTrieBuilder", ptr %this1, i32 0, i32 5
  %4 = load ptr, ptr %uchars, align 8
  %uchars3 = getelementptr inbounds %"class.icu_75::UCharsTrieBuilder", ptr %this1, i32 0, i32 5
  %5 = load ptr, ptr %uchars3, align 8
  %ucharsCapacity = getelementptr inbounds %"class.icu_75::UCharsTrieBuilder", ptr %this1, i32 0, i32 6
  %6 = load i32, ptr %ucharsCapacity, align 8
  %ucharsLength = getelementptr inbounds %"class.icu_75::UCharsTrieBuilder", ptr %this1, i32 0, i32 7
  %7 = load i32, ptr %ucharsLength, align 4
  %sub = sub nsw i32 %6, %7
  %idx.ext = sext i32 %sub to i64
  %add.ptr = getelementptr inbounds i16, ptr %5, i64 %idx.ext
  invoke void @_ZN6icu_7510UCharsTrieC2EPDsPKDs(ptr noundef nonnull align 8 dereferenceable(28) %call2, ptr noundef %4, ptr noundef %add.ptr)
          to label %invoke.cont unwind label %lpad

invoke.cont:                                      ; preds = %new.notnull
  br label %new.cont

new.cont:                                         ; preds = %invoke.cont, %if.then
  %8 = phi ptr [ %call2, %invoke.cont ], [ null, %if.then ]
  store ptr %8, ptr %newTrie, align 8
  %9 = load ptr, ptr %newTrie, align 8
  %cmp = icmp eq ptr %9, null
  br i1 %cmp, label %if.then4, label %if.else

if.then4:                                         ; preds = %new.cont
  %10 = load ptr, ptr %errorCode.addr, align 8
  store i32 7, ptr %10, align 4
  br label %if.end

lpad:                                             ; preds = %new.notnull
  %11 = landingpad { ptr, i32 }
          cleanup
  %12 = extractvalue { ptr, i32 } %11, 0
  store ptr %12, ptr %exn.slot, align 8
  %13 = extractvalue { ptr, i32 } %11, 1
  store i32 %13, ptr %ehselector.slot, align 4
  %cleanup.is_active = load i1, ptr %cleanup.cond, align 1
  br i1 %cleanup.is_active, label %cleanup.action, label %cleanup.done

cleanup.action:                                   ; preds = %lpad
  %14 = load ptr, ptr %saved-rvalue, align 8
  call void @_ZN6icu_757UMemorydlEPv(ptr noundef %14) #8
  br label %cleanup.done

cleanup.done:                                     ; preds = %cleanup.action, %lpad
  br label %eh.resume

if.else:                                          ; preds = %new.cont
  %uchars5 = getelementptr inbounds %"class.icu_75::UCharsTrieBuilder", ptr %this1, i32 0, i32 5
  store ptr null, ptr %uchars5, align 8
  %ucharsCapacity6 = getelementptr inbounds %"class.icu_75::UCharsTrieBuilder", ptr %this1, i32 0, i32 6
  store i32 0, ptr %ucharsCapacity6, align 8
  br label %if.end

if.end:                                           ; preds = %if.else, %if.then4
  br label %if.end7

if.end7:                                          ; preds = %if.end, %entry
  %15 = load ptr, ptr %newTrie, align 8
  ret ptr %15

eh.resume:                                        ; preds = %cleanup.done
  %exn = load ptr, ptr %exn.slot, align 8
  %sel = load i32, ptr %ehselector.slot, align 4
  %lpad.val = insertvalue { ptr, i32 } poison, ptr %exn, 0
  %lpad.val8 = insertvalue { ptr, i32 } %lpad.val, i32 %sel, 1
  resume { ptr, i32 } %lpad.val8
}