; Function Attrs: mustprogress uwtable
define noundef ptr @_ZN6icu_7517UCharsTrieBuilder5buildE22UStringTrieBuildOptionR10UErrorCode(ptr noundef nonnull align 8 dereferenceable(112) %this, i32 noundef %buildOption, ptr noundef nonnull align 4 dereferenceable(4) %errorCode) local_unnamed_addr #0 align 2 personality ptr @__gxx_personality_v0 {
entry:
  tail call void @_ZN6icu_7517UCharsTrieBuilder11buildUCharsE22UStringTrieBuildOptionR10UErrorCode(ptr noundef nonnull align 8 dereferenceable(112) %this, i32 noundef %buildOption, ptr noundef nonnull align 4 dereferenceable(4) %errorCode)
  %0 = load i32, ptr %errorCode, align 4
  %cmp.i = icmp sgt i32 %0, 0
  br i1 %cmp.i, label %if.end7, label %if.then

if.then:                                          ; preds = %entry
  %call2 = tail call noundef ptr @_ZN6icu_757UMemorynwEm(i64 noundef 32) #11
  %new.isnull = icmp eq ptr %call2, null
  br i1 %new.isnull, label %if.then4, label %if.else

if.then4:                                         ; preds = %if.then
  store i32 7, ptr %errorCode, align 4
  br label %if.end7

if.else:                                          ; preds = %if.then
  %uchars = getelementptr inbounds i8, ptr %this, i64 96
  %1 = load ptr, ptr %uchars, align 8
  %ucharsCapacity = getelementptr inbounds i8, ptr %this, i64 104
  %2 = load i32, ptr %ucharsCapacity, align 8
  %ucharsLength = getelementptr inbounds i8, ptr %this, i64 108
  %3 = load i32, ptr %ucharsLength, align 4
  %sub = sub nsw i32 %2, %3
  %idx.ext = sext i32 %sub to i64
  %add.ptr = getelementptr inbounds i16, ptr %1, i64 %idx.ext
  store ptr %1, ptr %call2, align 8
  %uchars_.i = getelementptr inbounds i8, ptr %call2, i64 8
  store ptr %add.ptr, ptr %uchars_.i, align 8
  %pos_.i = getelementptr inbounds i8, ptr %call2, i64 16
  store ptr %add.ptr, ptr %pos_.i, align 8
  %remainingMatchLength_.i = getelementptr inbounds i8, ptr %call2, i64 24
  store i32 -1, ptr %remainingMatchLength_.i, align 8
  store ptr null, ptr %uchars, align 8
  store i32 0, ptr %ucharsCapacity, align 8
  br label %if.end7

if.end7:                                          ; preds = %if.then4, %if.else, %entry
  %newTrie.0 = phi ptr [ null, %if.then4 ], [ %call2, %if.else ], [ null, %entry ]
  ret ptr %newTrie.0
}